; Function Attrs: mustprogress uwtable
define internal noundef zeroext i1 @"_ZNSt17_Function_handlerIFbRKNSt7__cxx1112basic_stringIcSt11char_traitsIcESaIcEEEP5cmakeEZNS8_7SetArgsERKSt6vectorIS5_SaIS5_EEE4$_23E9_M_invokeERKSt9_Any_dataS7_OS9_"(ptr nocapture nonnull readnone align 8 %0, ptr noundef nonnull align 8 dereferenceable(32) %1, ptr nocapture noundef nonnull readonly align 8 dereferenceable(8) %2) #3 align 2 personality ptr @__gxx_personality_v0 {
  %4 = alloca %"class.std::__cxx11::basic_string", align 8
  %.val = load ptr, ptr %2, align 8
  call void @llvm.lifetime.start.p0(i64 32, ptr nonnull %4)
  %5 = tail call noundef nonnull align 8 dereferenceable(8) ptr @_ZStlsISt11char_traitsIcEERSt13basic_ostreamIcT_ES5_PKc(ptr noundef nonnull align 8 dereferenceable(8) @_ZSt4cout, ptr noundef nonnull @.str.467)
  call void @_ZNSt7__cxx1112basic_stringIcSt11char_traitsIcESaIcEEC1ERKS4_(ptr noundef nonnull align 8 dereferenceable(32) %4, ptr noundef nonnull align 8 dereferenceable(32) %1)
  invoke void @_ZN5cmsys11SystemTools20ConvertToUnixSlashesERNSt7__cxx1112basic_stringIcSt11char_traitsIcESaIcEEE(ptr noundef nonnull align 8 dereferenceable(32) %4)
          to label %6 unwind label %7

6:                                                ; preds = %3
  invoke void @_ZN5cmake12SetTraceFileERKNSt7__cxx1112basic_stringIcSt11char_traitsIcESaIcEEE(ptr noundef nonnull align 8 dereferenceable(2216) %.val, ptr noundef nonnull align 8 dereferenceable(32) %4)
          to label %"_ZSt10__invoke_rIbRZN5cmake7SetArgsERKSt6vectorINSt7__cxx1112basic_stringIcSt11char_traitsIcESaIcEEESaIS7_EEE4$_23JRKS7_PS0_EENSt9enable_ifIX16is_invocable_r_vIT_T0_DpT1_EESI_E4typeEOSJ_DpOSK_.exit" unwind label %7

7:                                                ; preds = %6, %3
  %8 = landingpad { ptr, i32 }
          cleanup
  call void @_ZNSt7__cxx1112basic_stringIcSt11char_traitsIcESaIcEED1Ev(ptr noundef nonnull align 8 dereferenceable(32) %4) #30
  resume { ptr, i32 } %8

"_ZSt10__invoke_rIbRZN5cmake7SetArgsERKSt6vectorINSt7__cxx1112basic_stringIcSt11char_traitsIcESaIcEEESaIS7_EEE4$_23JRKS7_PS0_EENSt9enable_ifIX16is_invocable_r_vIT_T0_DpT1_EESI_E4typeEOSJ_DpOSK_.exit": ; preds = %6
  %9 = getelementptr inbounds i8, ptr %.val, i64 270
  store i8 1, ptr %9, align 2
  call void @_ZNSt7__cxx1112basic_stringIcSt11char_traitsIcESaIcEED1Ev(ptr noundef nonnull align 8 dereferenceable(32) %4) #30
  call void @llvm.lifetime.end.p0(i64 32, ptr nonnull %4)
  ret i1 true
}